; Function Attrs: nounwind uwtable
define ptr @l_Lake_Toml_mkUnexpectedCharError(ptr noundef %0, i32 noundef %1, ptr noundef %2, i8 noundef zeroext %3) local_unnamed_addr #1 {
  %5 = load ptr, ptr @l_Lake_Toml_mkUnexpectedCharError___closed__1, align 8, !tbaa !10
  %6 = tail call ptr @lean_string_push(ptr noundef %5, i32 noundef %1) #4
  %7 = load ptr, ptr @l_Lake_Toml_mkUnexpectedCharError___closed__2, align 8, !tbaa !10
  %8 = tail call ptr @lean_string_append(ptr noundef %7, ptr noundef %6) #4
  %9 = ptrtoint ptr %6 to i64
  %10 = and i64 %9, 1
  %.not = icmp eq i64 %10, 0
  br i1 %.not, label %11, label %lean_dec.exit

11:                                               ; preds = %4
  %12 = load i32, ptr %6, align 4, !tbaa !4
  %13 = icmp sgt i32 %12, 1
  br i1 %13, label %14, label %16, !prof !9

14:                                               ; preds = %11
  %15 = add nsw i32 %12, -1
  store i32 %15, ptr %6, align 4, !tbaa !4
  br label %lean_dec.exit

16:                                               ; preds = %11
  %.not.i = icmp eq i32 %12, 0
  br i1 %.not.i, label %lean_dec.exit, label %17

17:                                               ; preds = %16
  tail call void @lean_dec_ref_cold(ptr noundef nonnull %6) #4
  br label %lean_dec.exit

lean_dec.exit:                                    ; preds = %17, %16, %14, %4
  %18 = load ptr, ptr @l_Lake_Toml_mkUnexpectedCharError___closed__3, align 8, !tbaa !10
  %19 = tail call ptr @lean_string_append(ptr noundef %8, ptr noundef %18) #4
  %20 = tail call ptr @l_Lean_Parser_ParserState_mkUnexpectedError(ptr noundef %0, ptr noundef %19, ptr noundef %2, i8 noundef zeroext %3) #4
  ret ptr %20
}